target datalayout = "e-m:e-p270:32:32-p271:32:32-p272:64:64-i64:64-i128:128-f80:128-n8:16:32:64-S128"
target triple = "x86_64-pc-linux-gnu"

%struct.H5O_linfo_t = type { i8, i8, i64, i64, i64, i64, i64 }
%struct.H5O_copy_t = type { i8, i8, i8, i8, i8, i8, i8, ptr, i32, i32, ptr, ptr, i8, ptr, ptr, ptr, ptr, ptr, i64 }
%struct.H5G_copy_file_ud_t = type { %struct.H5O_copy_file_ud_common_t, i32, %union.H5G_cache_t }
%struct.H5O_copy_file_ud_common_t = type { ptr }
%union.H5G_cache_t = type { %struct.anon }
%struct.anon = type { i64, i64 }

@H5O_init_g = external global i8, align 1
@H5_libterm_g = external global i8, align 1
@.str.1 = private unnamed_addr constant [102 x i8] c"generated/home/dtcxzyw/WorkSpace/Projects/compilers/llvm-opt-benchmark/bench/hdf5/hdf5/src/H5Olinfo.c\00", align 1
@H5E_OHDR_g = external global i64, align 8
@H5E_RESOURCE_g = external global i64, align 8
@H5E_NOSPACE_g = external global i64, align 8
@.str.4 = private unnamed_addr constant [25 x i8] c"memory allocation failed\00", align 1
@H5_H5O_linfo_t_reg_free_list = internal global { i8, [3 x i8], i32, i32, [4 x i8], ptr, i64, ptr } { i8 0, [3 x i8] zeroinitializer, i32 0, i32 0, [4 x i8] zeroinitializer, ptr @.str.7, i64 48, ptr null }, align 8
@__func__.H5O__linfo_copy = private unnamed_addr constant [16 x i8] c"H5O__linfo_copy\00", align 1
@__func__.H5O__linfo_copy_file = private unnamed_addr constant [21 x i8] c"H5O__linfo_copy_file\00", align 1
@H5E_CANTCOPY_g = external global i64, align 8
@H5E_SYM_g = external global i64, align 8
@H5E_CANTINIT_g = external global i64, align 8
@.str.10 = private unnamed_addr constant [50 x i8] c"unable to create 'dense' form of new format group\00", align 1

; Function Attrs: nounwind uwtable
define internal ptr @H5O__linfo_copy(ptr noundef %0, ptr noundef %1) #0 {
  %3 = alloca ptr, align 8
  %4 = alloca ptr, align 8
  %5 = alloca ptr, align 8
  %6 = alloca ptr, align 8
  %7 = alloca ptr, align 8
  %8 = alloca i8, align 1
  store ptr %0, ptr %3, align 8, !tbaa !21
  store ptr %1, ptr %4, align 8, !tbaa !21
  call void @llvm.lifetime.start.p0(i64 8, ptr %5) #6
  %9 = load ptr, ptr %3, align 8, !tbaa !21
  store ptr %9, ptr %5, align 8, !tbaa !18
  call void @llvm.lifetime.start.p0(i64 8, ptr %6) #6
  %10 = load ptr, ptr %4, align 8, !tbaa !21
  store ptr %10, ptr %6, align 8, !tbaa !18
  call void @llvm.lifetime.start.p0(i64 8, ptr %7) #6
  store ptr null, ptr %7, align 8, !tbaa !21
  call void @llvm.lifetime.start.p0(i64 1, ptr %8) #6
  store i8 0, ptr %8, align 1, !tbaa !22
  %11 = load i8, ptr @H5O_init_g, align 1, !tbaa !22, !range !24, !noundef !25
  %12 = trunc i8 %11 to i1
  br i1 %12, label %17, label %13

13:                                               ; preds = %2
  %14 = load i8, ptr @H5_libterm_g, align 1, !tbaa !22, !range !24, !noundef !25
  %15 = trunc i8 %14 to i1
  %16 = xor i1 %15, true
  br label %17

17:                                               ; preds = %13, %2
  %18 = phi i1 [ true, %2 ], [ %16, %13 ]
  %19 = xor i1 %18, true
  %20 = xor i1 %19, true
  %21 = zext i1 %20 to i32
  %22 = sext i32 %21 to i64
  %23 = call i64 @llvm.expect.i64(i64 %22, i64 1)
  %24 = icmp ne i64 %23, 0
  br i1 %24, label %25, label %55

25:                                               ; preds = %17
  %26 = load ptr, ptr %6, align 8, !tbaa !18
  %27 = icmp ne ptr %26, null
  br i1 %27, label %50, label %28

28:                                               ; preds = %25
  %29 = call noalias ptr @H5FL_reg_malloc(ptr noundef @H5_H5O_linfo_t_reg_free_list)
  store ptr %29, ptr %6, align 8, !tbaa !18
  %30 = icmp eq ptr null, %29
  br i1 %30, label %31, label %50

31:                                               ; preds = %28
  br label %32

32:                                               ; preds = %31
  br label %33

33:                                               ; preds = %32
  br label %34

34:                                               ; preds = %33
  %35 = load i64, ptr @H5E_RESOURCE_g, align 8, !tbaa !14
  %36 = load i64, ptr @H5E_NOSPACE_g, align 8, !tbaa !14
  %37 = call i32 (ptr, ptr, i32, i64, i64, ptr, ...) @H5E_printf_stack(ptr noundef @.str.1, ptr noundef @__func__.H5O__linfo_copy, i32 noundef 255, i64 noundef %35, i64 noundef %36, ptr noundef @.str.4)
  br label %38

38:                                               ; preds = %34
  br label %39

39:                                               ; preds = %38
  store i8 1, ptr %8, align 1, !tbaa !22
  %40 = load i8, ptr %8, align 1, !tbaa !22, !range !24, !noundef !25
  %41 = trunc i8 %40 to i1
  %42 = zext i1 %41 to i8
  store i8 %42, ptr %8, align 1, !tbaa !22
  br label %43

43:                                               ; preds = %39
  br label %44

44:                                               ; preds = %43
  br label %45

45:                                               ; preds = %44
  store ptr null, ptr %7, align 8, !tbaa !21
  br label %54

46:                                               ; No predecessors!
  br label %47

47:                                               ; preds = %46
  br label %48

48:                                               ; preds = %47
  br label %49

49:                                               ; preds = %48
  br label %50

50:                                               ; preds = %49, %28, %25
  %51 = load ptr, ptr %6, align 8, !tbaa !18
  %52 = load ptr, ptr %5, align 8, !tbaa !18
  call void @llvm.memcpy.p0.p0.i64(ptr align 8 %51, ptr align 8 %52, i64 48, i1 false), !tbaa.struct !38
  %53 = load ptr, ptr %6, align 8, !tbaa !18
  store ptr %53, ptr %7, align 8, !tbaa !21
  br label %54

54:                                               ; preds = %50, %45
  br label %55

55:                                               ; preds = %54, %17
  %56 = load ptr, ptr %7, align 8, !tbaa !21
  call void @llvm.lifetime.end.p0(i64 1, ptr %8) #6
  call void @llvm.lifetime.end.p0(i64 8, ptr %7) #6
  call void @llvm.lifetime.end.p0(i64 8, ptr %6) #6
  call void @llvm.lifetime.end.p0(i64 8, ptr %5) #6
  ret ptr %56
}

; Function Attrs: nounwind uwtable
define internal ptr @H5O__linfo_copy_file(ptr noundef %0, ptr noundef %1, ptr noundef %2, ptr noundef %3, ptr noundef %4, ptr noundef %5, ptr noundef %6) #0 {
  %8 = alloca ptr, align 8
  %9 = alloca ptr, align 8
  %10 = alloca ptr, align 8
  %11 = alloca ptr, align 8
  %12 = alloca ptr, align 8
  %13 = alloca ptr, align 8
  %14 = alloca ptr, align 8
  %15 = alloca ptr, align 8
  %16 = alloca ptr, align 8
  %17 = alloca ptr, align 8
  %18 = alloca ptr, align 8
  %19 = alloca i64, align 8
  %20 = alloca i8, align 1
  store ptr %0, ptr %8, align 8, !tbaa !3
  store ptr %1, ptr %9, align 8, !tbaa !21
  store ptr %2, ptr %10, align 8, !tbaa !3
  store ptr %3, ptr %11, align 8, !tbaa !39
  store ptr %4, ptr %12, align 8, !tbaa !12
  store ptr %5, ptr %13, align 8, !tbaa !41
  store ptr %6, ptr %14, align 8, !tbaa !21
  call void @llvm.lifetime.start.p0(i64 8, ptr %15) #6
  %21 = load ptr, ptr %9, align 8, !tbaa !21
  store ptr %21, ptr %15, align 8, !tbaa !18
  call void @llvm.lifetime.start.p0(i64 8, ptr %16) #6
  store ptr null, ptr %16, align 8, !tbaa !18
  call void @llvm.lifetime.start.p0(i64 8, ptr %17) #6
  %22 = load ptr, ptr %14, align 8, !tbaa !21
  store ptr %22, ptr %17, align 8, !tbaa !43
  call void @llvm.lifetime.start.p0(i64 8, ptr %18) #6
  store ptr null, ptr %18, align 8, !tbaa !21
  call void @llvm.lifetime.start.p0(i64 8, ptr %19) #6
  store i64 -1, ptr %19, align 8, !tbaa !14
  call void @llvm.lifetime.start.p0(i64 1, ptr %20) #6
  store i8 0, ptr %20, align 1, !tbaa !22
  call void @H5AC_tag(i64 noundef 2, ptr noundef %19)
  %23 = load i8, ptr @H5O_init_g, align 1, !tbaa !22, !range !24, !noundef !25
  %24 = trunc i8 %23 to i1
  br i1 %24, label %29, label %25

25:                                               ; preds = %7
  %26 = load i8, ptr @H5_libterm_g, align 1, !tbaa !22, !range !24, !noundef !25
  %27 = trunc i8 %26 to i1
  %28 = xor i1 %27, true
  br label %29

29:                                               ; preds = %25, %7
  %30 = phi i1 [ true, %7 ], [ %28, %25 ]
  %31 = xor i1 %30, true
  %32 = xor i1 %31, true
  %33 = zext i1 %32 to i32
  %34 = sext i32 %33 to i64
  %35 = call i64 @llvm.expect.i64(i64 %34, i64 1)
  %36 = icmp ne i64 %35, 0
  br i1 %36, label %37, label %132

37:                                               ; preds = %29
  %38 = load ptr, ptr %15, align 8, !tbaa !18
  %39 = call ptr @H5O__linfo_copy(ptr noundef %38, ptr noundef null)
  store ptr %39, ptr %16, align 8, !tbaa !18
  %40 = icmp eq ptr null, %39
  br i1 %40, label %41, label %60

41:                                               ; preds = %37
  br label %42

42:                                               ; preds = %41
  br label %43

43:                                               ; preds = %42
  br label %44

44:                                               ; preds = %43
  %45 = load i64, ptr @H5E_OHDR_g, align 8, !tbaa !14
  %46 = load i64, ptr @H5E_CANTCOPY_g, align 8, !tbaa !14
  %47 = call i32 (ptr, ptr, i32, i64, i64, ptr, ...) @H5E_printf_stack(ptr noundef @.str.1, ptr noundef @__func__.H5O__linfo_copy_file, i32 noundef 380, i64 noundef %45, i64 noundef %46, ptr noundef @.str.4)
  br label %48

48:                                               ; preds = %44
  br label %49

49:                                               ; preds = %48
  store i8 1, ptr %20, align 1, !tbaa !22
  %50 = load i8, ptr %20, align 1, !tbaa !22, !range !24, !noundef !25
  %51 = trunc i8 %50 to i1
  %52 = zext i1 %51 to i8
  store i8 %52, ptr %20, align 1, !tbaa !22
  br label %53

53:                                               ; preds = %49
  br label %54

54:                                               ; preds = %53
  br label %55

55:                                               ; preds = %54
  store ptr null, ptr %18, align 8, !tbaa !21
  br label %121

56:                                               ; No predecessors!
  br label %57

57:                                               ; preds = %56
  br label %58

58:                                               ; preds = %57
  br label %59

59:                                               ; preds = %58
  br label %60

60:                                               ; preds = %59, %37
  %61 = load ptr, ptr %13, align 8, !tbaa !41
  %62 = getelementptr inbounds nuw %struct.H5O_copy_t, ptr %61, i32 0, i32 9
  %63 = load i32, ptr %62, align 4, !tbaa !45
  %64 = icmp sge i32 %63, 0
  br i1 %64, label %65, label %84

65:                                               ; preds = %60
  %66 = load ptr, ptr %13, align 8, !tbaa !41
  %67 = getelementptr inbounds nuw %struct.H5O_copy_t, ptr %66, i32 0, i32 8
  %68 = load i32, ptr %67, align 8, !tbaa !49
  %69 = load ptr, ptr %13, align 8, !tbaa !41
  %70 = getelementptr inbounds nuw %struct.H5O_copy_t, ptr %69, i32 0, i32 9
  %71 = load i32, ptr %70, align 4, !tbaa !45
  %72 = icmp sge i32 %68, %71
  br i1 %72, label %73, label %84

73:                                               ; preds = %65
  %74 = load ptr, ptr %16, align 8, !tbaa !18
  %75 = getelementptr inbounds nuw %struct.H5O_linfo_t, ptr %74, i32 0, i32 4
  store i64 0, ptr %75, align 8, !tbaa !29
  %76 = load ptr, ptr %16, align 8, !tbaa !18
  %77 = getelementptr inbounds nuw %struct.H5O_linfo_t, ptr %76, i32 0, i32 2
  store i64 0, ptr %77, align 8, !tbaa !30
  %78 = load ptr, ptr %16, align 8, !tbaa !18
  %79 = getelementptr inbounds nuw %struct.H5O_linfo_t, ptr %78, i32 0, i32 5
  store i64 -1, ptr %79, align 8, !tbaa !36
  %80 = load ptr, ptr %16, align 8, !tbaa !18
  %81 = getelementptr inbounds nuw %struct.H5O_linfo_t, ptr %80, i32 0, i32 6
  store i64 -1, ptr %81, align 8, !tbaa !37
  %82 = load ptr, ptr %16, align 8, !tbaa !18
  %83 = getelementptr inbounds nuw %struct.H5O_linfo_t, ptr %82, i32 0, i32 3
  store i64 -1, ptr %83, align 8, !tbaa !33
  br label %119

84:                                               ; preds = %65, %60
  %85 = load ptr, ptr %15, align 8, !tbaa !18
  %86 = getelementptr inbounds nuw %struct.H5O_linfo_t, ptr %85, i32 0, i32 5
  %87 = load i64, ptr %86, align 8, !tbaa !36
  %88 = icmp ne i64 %87, -1
  br i1 %88, label %89, label %118

89:                                               ; preds = %84
  %90 = load ptr, ptr %10, align 8, !tbaa !3
  %91 = load ptr, ptr %16, align 8, !tbaa !18
  %92 = load ptr, ptr %17, align 8, !tbaa !43
  %93 = getelementptr inbounds nuw %struct.H5G_copy_file_ud_t, ptr %92, i32 0, i32 0
  %94 = getelementptr inbounds nuw %struct.H5O_copy_file_ud_common_t, ptr %93, i32 0, i32 0
  %95 = load ptr, ptr %94, align 8, !tbaa !50
  %96 = call i32 @H5G__dense_create(ptr noundef %90, ptr noundef %91, ptr noundef %95)
  %97 = icmp slt i32 %96, 0
  br i1 %97, label %98, label %117

98:                                               ; preds = %89
  br label %99

99:                                               ; preds = %98
  br label %100

100:                                              ; preds = %99
  br label %101

101:                                              ; preds = %100
  %102 = load i64, ptr @H5E_SYM_g, align 8, !tbaa !14
  %103 = load i64, ptr @H5E_CANTINIT_g, align 8, !tbaa !14
  %104 = call i32 (ptr, ptr, i32, i64, i64, ptr, ...) @H5E_printf_stack(ptr noundef @.str.1, ptr noundef @__func__.H5O__linfo_copy_file, i32 noundef 401, i64 noundef %102, i64 noundef %103, ptr noundef @.str.10)
  br label %105

105:                                              ; preds = %101
  br label %106

106:                                              ; preds = %105
  store i8 1, ptr %20, align 1, !tbaa !22
  %107 = load i8, ptr %20, align 1, !tbaa !22, !range !24, !noundef !25
  %108 = trunc i8 %107 to i1
  %109 = zext i1 %108 to i8
  store i8 %109, ptr %20, align 1, !tbaa !22
  br label %110

110:                                              ; preds = %106
  br label %111

111:                                              ; preds = %110
  br label %112

112:                                              ; preds = %111
  store ptr null, ptr %18, align 8, !tbaa !21
  br label %121

113:                                              ; No predecessors!
  br label %114

114:                                              ; preds = %113
  br label %115

115:                                              ; preds = %114
  br label %116

116:                                              ; preds = %115
  br label %117

117:                                              ; preds = %116, %89
  br label %118

118:                                              ; preds = %117, %84
  br label %119

119:                                              ; preds = %118, %73
  %120 = load ptr, ptr %16, align 8, !tbaa !18
  store ptr %120, ptr %18, align 8, !tbaa !21
  br label %121

121:                                              ; preds = %119, %112, %55
  %122 = load ptr, ptr %18, align 8, !tbaa !21
  %123 = icmp ne ptr %122, null
  br i1 %123, label %131, label %124

124:                                              ; preds = %121
  %125 = load ptr, ptr %16, align 8, !tbaa !18
  %126 = icmp ne ptr %125, null
  br i1 %126, label %127, label %130

127:                                              ; preds = %124
  %128 = load ptr, ptr %16, align 8, !tbaa !18
  %129 = call ptr @H5FL_reg_free(ptr noundef @H5_H5O_linfo_t_reg_free_list, ptr noundef %128)
  store ptr %129, ptr %16, align 8, !tbaa !18
  br label %130

130:                                              ; preds = %127, %124
  br label %131

131:                                              ; preds = %130, %121
  br label %132

132:                                              ; preds = %131, %29
  %133 = load i64, ptr %19, align 8, !tbaa !14
  call void @H5AC_tag(i64 noundef %133, ptr noundef null)
  %134 = load ptr, ptr %18, align 8, !tbaa !21
  call void @llvm.lifetime.end.p0(i64 1, ptr %20) #6
  call void @llvm.lifetime.end.p0(i64 8, ptr %19) #6
  call void @llvm.lifetime.end.p0(i64 8, ptr %18) #6
  call void @llvm.lifetime.end.p0(i64 8, ptr %17) #6
  call void @llvm.lifetime.end.p0(i64 8, ptr %16) #6
  call void @llvm.lifetime.end.p0(i64 8, ptr %15) #6
  ret ptr %134
}