; Function Attrs: nounwind uwtable
define internal ptr @H5O__linfo_copy_file(ptr readnone captures(none) %0, ptr noundef readonly captures(none) %1, ptr noundef %2, ptr readnone captures(none) %3, ptr readnone captures(none) %4, ptr noundef readonly captures(none) %5, ptr noundef readonly captures(none) %6) #0 {
  %8 = alloca i64, align 8
  call void @llvm.lifetime.start.p0(i64 8, ptr nonnull %8) #7
  store i64 -1, ptr %8, align 8, !tbaa !10
  call void @H5AC_tag(i64 noundef 2, ptr noundef nonnull %8) #7
  %9 = load i8, ptr @H5O_init_g, align 1, !tbaa !3, !range !7, !noundef !8
  %10 = trunc nuw i8 %9 to i1
  %11 = load i8, ptr @H5_libterm_g, align 1, !range !7
  %12 = trunc nuw i8 %11 to i1
  %13 = xor i1 %12, true
  %14 = select i1 %10, i1 true, i1 %13
  br i1 %14, label %15, label %.thread, !prof !9

15:                                               ; preds = %7
  %16 = call noalias ptr @H5FL_reg_malloc(ptr noundef nonnull @H5_H5O_linfo_t_reg_free_list) #7
  %17 = icmp eq ptr %16, null
  br i1 %17, label %18, label %25

18:                                               ; preds = %15
  %19 = load i64, ptr @H5E_RESOURCE_g, align 8, !tbaa !10
  %20 = load i64, ptr @H5E_NOSPACE_g, align 8, !tbaa !10
  %21 = call i32 (ptr, ptr, i32, i64, i64, ptr, ...) @H5E_printf_stack(ptr noundef nonnull @.str.1, ptr noundef nonnull @__func__.H5O__linfo_copy, i32 noundef 255, i64 noundef %19, i64 noundef %20, ptr noundef nonnull @.str.4) #7
  %22 = load i64, ptr @H5E_OHDR_g, align 8, !tbaa !10
  %23 = load i64, ptr @H5E_CANTCOPY_g, align 8, !tbaa !10
  %24 = call i32 (ptr, ptr, i32, i64, i64, ptr, ...) @H5E_printf_stack(ptr noundef nonnull @.str.1, ptr noundef nonnull @__func__.H5O__linfo_copy_file, i32 noundef 380, i64 noundef %22, i64 noundef %23, ptr noundef nonnull @.str.4) #7
  br label %.thread

25:                                               ; preds = %15
  call void @llvm.memcpy.p0.p0.i64(ptr noundef nonnull align 8 dereferenceable(48) %16, ptr noundef nonnull readonly align 8 dereferenceable(48) %1, i64 48, i1 false), !tbaa.struct !27
  %26 = getelementptr inbounds nuw i8, ptr %5, i64 20
  %27 = load i32, ptr %26, align 4, !tbaa !28
  %28 = icmp sgt i32 %27, -1
  br i1 %28, label %29, label %37

29:                                               ; preds = %25
  %30 = getelementptr inbounds nuw i8, ptr %5, i64 16
  %31 = load i32, ptr %30, align 8, !tbaa !35
  %.not = icmp slt i32 %31, %27
  br i1 %.not, label %37, label %32

32:                                               ; preds = %29
  %33 = getelementptr inbounds nuw i8, ptr %16, i64 24
  store i64 0, ptr %33, align 8, !tbaa !19
  %34 = getelementptr inbounds nuw i8, ptr %16, i64 8
  store i64 0, ptr %34, align 8, !tbaa !22
  %35 = getelementptr inbounds nuw i8, ptr %16, i64 32
  %36 = getelementptr inbounds nuw i8, ptr %16, i64 16
  store i64 -1, ptr %36, align 8, !tbaa !23
  call void @llvm.memset.p0.i64(ptr noundef nonnull align 8 dereferenceable(16) %35, i8 -1, i64 16, i1 false)
  br label %.thread

37:                                               ; preds = %29, %25
  %38 = getelementptr inbounds nuw i8, ptr %1, i64 32
  %39 = load i64, ptr %38, align 8, !tbaa !25
  %.not25 = icmp eq i64 %39, -1
  br i1 %.not25, label %.thread, label %40

40:                                               ; preds = %37
  %41 = load ptr, ptr %6, align 8, !tbaa !36
  %42 = call i32 @H5G__dense_create(ptr noundef %2, ptr noundef nonnull %16, ptr noundef %41) #7
  %43 = icmp slt i32 %42, 0
  br i1 %43, label %44, label %.thread

44:                                               ; preds = %40
  %45 = load i64, ptr @H5E_SYM_g, align 8, !tbaa !10
  %46 = load i64, ptr @H5E_CANTINIT_g, align 8, !tbaa !10
  %47 = call i32 (ptr, ptr, i32, i64, i64, ptr, ...) @H5E_printf_stack(ptr noundef nonnull @.str.1, ptr noundef nonnull @__func__.H5O__linfo_copy_file, i32 noundef 401, i64 noundef %45, i64 noundef %46, ptr noundef nonnull @.str.10) #7
  %48 = call ptr @H5FL_reg_free(ptr noundef nonnull @H5_H5O_linfo_t_reg_free_list, ptr noundef nonnull %16) #7
  br label %.thread

.thread:                                          ; preds = %18, %32, %40, %37, %44, %7
  %.0 = phi ptr [ null, %44 ], [ null, %7 ], [ %16, %32 ], [ %16, %40 ], [ %16, %37 ], [ null, %18 ]
  %49 = load i64, ptr %8, align 8, !tbaa !10
  call void @H5AC_tag(i64 noundef %49, ptr noundef null) #7
  call void @llvm.lifetime.end.p0(i64 8, ptr nonnull %8) #7
  ret ptr %.0
}